; Function Attrs: mustprogress nounwind uwtable
define hidden void @_ZN17CodeBlobCollector7do_blobEP8CodeBlob(ptr noundef %0) #0 align 2 {
  %2 = getelementptr inbounds i8, ptr %0, i64 52
  %3 = load i8, ptr %2, align 4
  switch i8 %3, label %9 [
    i8 1, label %.loopexit
    i8 2, label %4
  ]

4:                                                ; preds = %1
  %5 = getelementptr inbounds i8, ptr %0, i64 16
  %6 = load ptr, ptr %5, align 8
  %7 = tail call i32 @strcmp(ptr noundef nonnull dereferenceable(1) %6, ptr noundef nonnull dereferenceable(14) @.str) #8
  %8 = icmp eq i32 %7, 0
  br i1 %8, label %.loopexit, label %9

9:                                                ; preds = %1, %4
  %10 = getelementptr inbounds i8, ptr %0, i64 36
  %11 = load i32, ptr %10, align 4
  %12 = sext i32 %11 to i64
  %13 = getelementptr inbounds i8, ptr %0, i64 %12
  %14 = load ptr, ptr @_ZN17CodeBlobCollector18_global_code_blobsE, align 8
  %15 = load i32, ptr %14, align 4
  %16 = icmp sgt i32 %15, 0
  br i1 %16, label %.lr.ph, label %._crit_edge

.lr.ph:                                           ; preds = %9
  %17 = getelementptr inbounds i8, ptr %14, i64 8
  %18 = load ptr, ptr %17, align 8
  %wide.trip.count = zext nneg i32 %15 to i64
  br label %20

19:                                               ; preds = %20
  %indvars.iv.next = add nuw nsw i64 %indvars.iv, 1
  %exitcond.not = icmp eq i64 %indvars.iv.next, %wide.trip.count
  br i1 %exitcond.not, label %._crit_edge, label %20, !llvm.loop !6

20:                                               ; preds = %.lr.ph, %19
  %indvars.iv = phi i64 [ 0, %.lr.ph ], [ %indvars.iv.next, %19 ]
  %21 = getelementptr inbounds ptr, ptr %18, i64 %indvars.iv
  %22 = load ptr, ptr %21, align 8
  %23 = getelementptr inbounds i8, ptr %22, i64 64
  %24 = load ptr, ptr %23, align 8
  %25 = icmp eq ptr %13, %24
  br i1 %25, label %.loopexit, label %19

._crit_edge:                                      ; preds = %19, %9
  %26 = tail call noundef ptr @_Z12AllocateHeapm8MEMFLAGSN17AllocFailStrategy13AllocFailEnumE(i64 noundef 80, i8 noundef zeroext 9, i32 noundef 0) #9
  %27 = getelementptr inbounds i8, ptr %0, i64 16
  %28 = load ptr, ptr %27, align 8
  %29 = load i32, ptr %10, align 4
  %30 = sext i32 %29 to i64
  %31 = getelementptr inbounds i8, ptr %0, i64 %30
  %32 = getelementptr inbounds i8, ptr %0, i64 40
  %33 = load i32, ptr %32, align 8
  %34 = sext i32 %33 to i64
  %35 = getelementptr inbounds i8, ptr %0, i64 %34
  %36 = tail call ptr @strncpy(ptr noundef nonnull dereferenceable(1) %26, ptr noundef nonnull dereferenceable(1) %28, i64 noundef 63) #9
  %37 = getelementptr inbounds i8, ptr %26, i64 63
  store i8 0, ptr %37, align 1
  %38 = getelementptr inbounds i8, ptr %26, i64 64
  store ptr %31, ptr %38, align 8
  %39 = getelementptr inbounds i8, ptr %26, i64 72
  store ptr %35, ptr %39, align 8
  %40 = load ptr, ptr @_ZN17CodeBlobCollector18_global_code_blobsE, align 8
  %41 = load i32, ptr %40, align 8
  %42 = getelementptr inbounds i8, ptr %40, i64 4
  %43 = load i32, ptr %42, align 4
  %44 = icmp eq i32 %41, %43
  br i1 %44, label %45, label %_ZN26GrowableArrayWithAllocatorIP17JvmtiCodeBlobDesc13GrowableArrayIS1_EE6appendERKS1_.exit

45:                                               ; preds = %._crit_edge
  %46 = add nsw i32 %41, 1
  %47 = icmp sgt i32 %41, -1
  %48 = xor i32 %41, -2147483648
  %49 = and i32 %48, %46
  %50 = icmp eq i32 %49, 0
  %51 = and i1 %47, %50
  %52 = tail call range(i32 0, 33) i32 @llvm.ctlz.i32(i32 %46, i1 true)
  %53 = sub nuw nsw i32 32, %52
  %54 = shl nuw i32 1, %53
  %.0.i.i.i.i = select i1 %51, i32 %46, i32 %54
  tail call void @_ZN26GrowableArrayWithAllocatorIP17JvmtiCodeBlobDesc13GrowableArrayIS1_EE9expand_toEi(ptr noundef nonnull align 8 dereferenceable(16) %40, i32 noundef %.0.i.i.i.i)
  %.pre.i = load i32, ptr %40, align 8
  br label %_ZN26GrowableArrayWithAllocatorIP17JvmtiCodeBlobDesc13GrowableArrayIS1_EE6appendERKS1_.exit

_ZN26GrowableArrayWithAllocatorIP17JvmtiCodeBlobDesc13GrowableArrayIS1_EE6appendERKS1_.exit: ; preds = %._crit_edge, %45
  %55 = phi i32 [ %.pre.i, %45 ], [ %41, %._crit_edge ]
  %56 = add nsw i32 %55, 1
  store i32 %56, ptr %40, align 8
  %57 = getelementptr inbounds i8, ptr %40, i64 8
  %58 = load ptr, ptr %57, align 8
  %59 = sext i32 %55 to i64
  %60 = getelementptr inbounds ptr, ptr %58, i64 %59
  store ptr %26, ptr %60, align 8
  br label %.loopexit

.loopexit:                                        ; preds = %20, %1, %4, %_ZN26GrowableArrayWithAllocatorIP17JvmtiCodeBlobDesc13GrowableArrayIS1_EE6appendERKS1_.exit
  ret void
}